; Function Attrs: nounwind uwtable
define void @lv_label_cut_text(ptr noundef %0, i32 noundef %1, i32 noundef %2) local_unnamed_addr #0 {
  %4 = getelementptr inbounds nuw i8, ptr %0, i64 116
  %5 = load i8, ptr %4, align 4
  %6 = and i8 %5, 8
  %.not = icmp eq i8 %6, 0
  br i1 %.not, label %7, label %10

7:                                                ; preds = %3
  tail call void @lv_obj_invalidate(ptr noundef nonnull %0) #7
  %8 = getelementptr inbounds nuw i8, ptr %0, i64 64
  %9 = load ptr, ptr %8, align 8, !tbaa !3
  tail call void @lv_text_cut(ptr noundef %9, i32 noundef %1, i32 noundef %2) #7
  tail call fastcc void @lv_label_refr_text(ptr noundef nonnull %0)
  br label %10

10:                                               ; preds = %3, %7
  ret void
}